target datalayout = "e-m:e-p270:32:32-p271:32:32-p272:64:64-i64:64-f80:128-n8:16:32:64-S128"
target triple = "x86_64-pc-linux-gnu"

@.str = private unnamed_addr constant [5 x i8] c"%d%d\00", align 1
@.str.1 = private unnamed_addr constant [3 x i8] c"%d\00", align 1
@.str.2 = private unnamed_addr constant [4 x i8] c"%d\0A\00", align 1

; Function Attrs: noinline nounwind uwtable
define dso_local void @main() #0 {
  %1 = alloca i32, align 4
  %2 = alloca i32, align 4
  %3 = alloca i32, align 4
  %4 = alloca i32, align 4
  %5 = alloca [100 x [100 x i32]], align 16
  %6 = call i32 (i8*, ...) @__isoc99_scanf(i8* getelementptr inbounds ([5 x i8], [5 x i8]* @.str, i64 0, i64 0), i32* %1, i32* %2)
  store i32 0, i32* %3, align 4
  br label %7

7:                                                ; preds = %28, %0
  %8 = load i32, i32* %3, align 4
  %9 = load i32, i32* %1, align 4
  %10 = icmp slt i32 %8, %9
  br i1 %10, label %11, label %31

11:                                               ; preds = %7
  store i32 0, i32* %4, align 4
  br label %12

12:                                               ; preds = %24, %11
  %13 = load i32, i32* %4, align 4
  %14 = load i32, i32* %2, align 4
  %15 = icmp slt i32 %13, %14
  br i1 %15, label %16, label %27

16:                                               ; preds = %12
  %17 = load i32, i32* %3, align 4
  %18 = sext i32 %17 to i64
  %19 = getelementptr inbounds [100 x [100 x i32]], [100 x [100 x i32]]* %5, i64 0, i64 %18
  %20 = load i32, i32* %4, align 4
  %21 = sext i32 %20 to i64
  %22 = getelementptr inbounds [100 x i32], [100 x i32]* %19, i64 0, i64 %21
  %23 = call i32 (i8*, ...) @__isoc99_scanf(i8* getelementptr inbounds ([3 x i8], [3 x i8]* @.str.1, i64 0, i64 0), i32* %22)
  br label %24

24:                                               ; preds = %16
  %25 = load i32, i32* %4, align 4
  %26 = add nsw i32 %25, 1
  store i32 %26, i32* %4, align 4
  br label %12

27:                                               ; preds = %12
  br label %28

28:                                               ; preds = %27
  %29 = load i32, i32* %3, align 4
  %30 = add nsw i32 %29, 1
  store i32 %30, i32* %3, align 4
  br label %7

31:                                               ; preds = %7
  br label %32

32:                                               ; preds = %143, %31
  %33 = load i32, i32* %1, align 4
  %34 = icmp sgt i32 %33, 1
  br i1 %34, label %35, label %38

35:                                               ; preds = %32
  %36 = load i32, i32* %2, align 4
  %37 = icmp sgt i32 %36, 1
  br label %38

38:                                               ; preds = %35, %32
  %39 = phi i1 [ false, %32 ], [ %37, %35 ]
  br i1 %39, label %40, label %148

40:                                               ; preds = %38
  store i32 0, i32* %4, align 4
  br label %41

41:                                               ; preds = %52, %40
  %42 = load i32, i32* %4, align 4
  %43 = load i32, i32* %2, align 4
  %44 = icmp slt i32 %42, %43
  br i1 %44, label %45, label %55

45:                                               ; preds = %41
  %46 = getelementptr inbounds [100 x [100 x i32]], [100 x [100 x i32]]* %5, i64 0, i64 0
  %47 = load i32, i32* %4, align 4
  %48 = sext i32 %47 to i64
  %49 = getelementptr inbounds [100 x i32], [100 x i32]* %46, i64 0, i64 %48
  %50 = load i32, i32* %49, align 4
  %51 = call i32 (i8*, ...) @printf(i8* getelementptr inbounds ([4 x i8], [4 x i8]* @.str.2, i64 0, i64 0), i32 %50)
  br label %52

52:                                               ; preds = %45
  %53 = load i32, i32* %4, align 4
  %54 = add nsw i32 %53, 1
  store i32 %54, i32* %4, align 4
  br label %41

55:                                               ; preds = %41
  store i32 1, i32* %3, align 4
  br label %56

56:                                               ; preds = %70, %55
  %57 = load i32, i32* %3, align 4
  %58 = load i32, i32* %1, align 4
  %59 = icmp slt i32 %57, %58
  br i1 %59, label %60, label %73

60:                                               ; preds = %56
  %61 = load i32, i32* %3, align 4
  %62 = sext i32 %61 to i64
  %63 = getelementptr inbounds [100 x [100 x i32]], [100 x [100 x i32]]* %5, i64 0, i64 %62
  %64 = load i32, i32* %2, align 4
  %65 = sub nsw i32 %64, 1
  %66 = sext i32 %65 to i64
  %67 = getelementptr inbounds [100 x i32], [100 x i32]* %63, i64 0, i64 %66
  %68 = load i32, i32* %67, align 4
  %69 = call i32 (i8*, ...) @printf(i8* getelementptr inbounds ([4 x i8], [4 x i8]* @.str.2, i64 0, i64 0), i32 %68)
  br label %70

70:                                               ; preds = %60
  %71 = load i32, i32* %3, align 4
  %72 = add nsw i32 %71, 1
  store i32 %72, i32* %3, align 4
  br label %56

73:                                               ; preds = %56
  %74 = load i32, i32* %2, align 4
  %75 = sub nsw i32 %74, 2
  store i32 %75, i32* %4, align 4
  br label %76

76:                                               ; preds = %89, %73
  %77 = load i32, i32* %4, align 4
  %78 = icmp sge i32 %77, 0
  br i1 %78, label %79, label %92

79:                                               ; preds = %76
  %80 = load i32, i32* %1, align 4
  %81 = sub nsw i32 %80, 1
  %82 = sext i32 %81 to i64
  %83 = getelementptr inbounds [100 x [100 x i32]], [100 x [100 x i32]]* %5, i64 0, i64 %82
  %84 = load i32, i32* %4, align 4
  %85 = sext i32 %84 to i64
  %86 = getelementptr inbounds [100 x i32], [100 x i32]* %83, i64 0, i64 %85
  %87 = load i32, i32* %86, align 4
  %88 = call i32 (i8*, ...) @printf(i8* getelementptr inbounds ([4 x i8], [4 x i8]* @.str.2, i64 0, i64 0), i32 %87)
  br label %89

89:                                               ; preds = %79
  %90 = load i32, i32* %4, align 4
  %91 = add nsw i32 %90, -1
  store i32 %91, i32* %4, align 4
  br label %76

92:                                               ; preds = %76
  %93 = load i32, i32* %1, align 4
  %94 = sub nsw i32 %93, 2
  store i32 %94, i32* %3, align 4
  br label %95

95:                                               ; preds = %105, %92
  %96 = load i32, i32* %3, align 4
  %97 = icmp sge i32 %96, 1
  br i1 %97, label %98, label %108

98:                                               ; preds = %95
  %99 = load i32, i32* %3, align 4
  %100 = sext i32 %99 to i64
  %101 = getelementptr inbounds [100 x [100 x i32]], [100 x [100 x i32]]* %5, i64 0, i64 %100
  %102 = getelementptr inbounds [100 x i32], [100 x i32]* %101, i64 0, i64 0
  %103 = load i32, i32* %102, align 16
  %104 = call i32 (i8*, ...) @printf(i8* getelementptr inbounds ([4 x i8], [4 x i8]* @.str.2, i64 0, i64 0), i32 %103)
  br label %105

105:                                              ; preds = %98
  %106 = load i32, i32* %3, align 4
  %107 = add nsw i32 %106, -1
  store i32 %107, i32* %3, align 4
  br label %95

108:                                              ; preds = %95
  store i32 0, i32* %3, align 4
  br label %109

109:                                              ; preds = %140, %108
  %110 = load i32, i32* %3, align 4
  %111 = load i32, i32* %1, align 4
  %112 = sub nsw i32 %111, 2
  %113 = icmp slt i32 %110, %112
  br i1 %113, label %114, label %143

114:                                              ; preds = %109
  store i32 0, i32* %4, align 4
  br label %115

115:                                              ; preds = %136, %114
  %116 = load i32, i32* %4, align 4
  %117 = load i32, i32* %2, align 4
  %118 = sub nsw i32 %117, 2
  %119 = icmp slt i32 %116, %118
  br i1 %119, label %120, label %139

120:                                              ; preds = %115
  %121 = load i32, i32* %3, align 4
  %122 = add nsw i32 %121, 1
  %123 = sext i32 %122 to i64
  %124 = getelementptr inbounds [100 x [100 x i32]], [100 x [100 x i32]]* %5, i64 0, i64 %123
  %125 = load i32, i32* %4, align 4
  %126 = add nsw i32 %125, 1
  %127 = sext i32 %126 to i64
  %128 = getelementptr inbounds [100 x i32], [100 x i32]* %124, i64 0, i64 %127
  %129 = load i32, i32* %128, align 4
  %130 = load i32, i32* %3, align 4
  %131 = sext i32 %130 to i64
  %132 = getelementptr inbounds [100 x [100 x i32]], [100 x [100 x i32]]* %5, i64 0, i64 %131
  %133 = load i32, i32* %4, align 4
  %134 = sext i32 %133 to i64
  %135 = getelementptr inbounds [100 x i32], [100 x i32]* %132, i64 0, i64 %134
  store i32 %129, i32* %135, align 4
  br label %136

136:                                              ; preds = %120
  %137 = load i32, i32* %4, align 4
  %138 = add nsw i32 %137, 1
  store i32 %138, i32* %4, align 4
  br label %115

139:                                              ; preds = %115
  br label %140

140:                                              ; preds = %139
  %141 = load i32, i32* %3, align 4
  %142 = add nsw i32 %141, 1
  store i32 %142, i32* %3, align 4
  br label %109

143:                                              ; preds = %109
  %144 = load i32, i32* %1, align 4
  %145 = sub nsw i32 %144, 2
  store i32 %145, i32* %1, align 4
  %146 = load i32, i32* %2, align 4
  %147 = sub nsw i32 %146, 2
  store i32 %147, i32* %2, align 4
  br label %32

148:                                              ; preds = %38
  %149 = load i32, i32* %1, align 4
  %150 = icmp eq i32 %149, 1
  br i1 %150, label %151, label %167

151:                                              ; preds = %148
  store i32 0, i32* %3, align 4
  br label %152

152:                                              ; preds = %163, %151
  %153 = load i32, i32* %3, align 4
  %154 = load i32, i32* %2, align 4
  %155 = icmp slt i32 %153, %154
  br i1 %155, label %156, label %166

156:                                              ; preds = %152
  %157 = getelementptr inbounds [100 x [100 x i32]], [100 x [100 x i32]]* %5, i64 0, i64 0
  %158 = load i32, i32* %3, align 4
  %159 = sext i32 %158 to i64
  %160 = getelementptr inbounds [100 x i32], [100 x i32]* %157, i64 0, i64 %159
  %161 = load i32, i32* %160, align 4
  %162 = call i32 (i8*, ...) @printf(i8* getelementptr inbounds ([4 x i8], [4 x i8]* @.str.2, i64 0, i64 0), i32 %161)
  br label %163

163:                                              ; preds = %156
  %164 = load i32, i32* %3, align 4
  %165 = add nsw i32 %164, 1
  store i32 %165, i32* %3, align 4
  br label %152

166:                                              ; preds = %152
  br label %183

167:                                              ; preds = %148
  store i32 0, i32* %3, align 4
  br label %168

168:                                              ; preds = %179, %167
  %169 = load i32, i32* %3, align 4
  %170 = load i32, i32* %1, align 4
  %171 = icmp slt i32 %169, %170
  br i1 %171, label %172, label %182

172:                                              ; preds = %168
  %173 = load i32, i32* %3, align 4
  %174 = sext i32 %173 to i64
  %175 = getelementptr inbounds [100 x [100 x i32]], [100 x [100 x i32]]* %5, i64 0, i64 %174
  %176 = getelementptr inbounds [100 x i32], [100 x i32]* %175, i64 0, i64 0
  %177 = load i32, i32* %176, align 16
  %178 = call i32 (i8*, ...) @printf(i8* getelementptr inbounds ([4 x i8], [4 x i8]* @.str.2, i64 0, i64 0), i32 %177)
  br label %179

179:                                              ; preds = %172
  %180 = load i32, i32* %3, align 4
  %181 = add nsw i32 %180, 1
  store i32 %181, i32* %3, align 4
  br label %168

182:                                              ; preds = %168
  br label %183

183:                                              ; preds = %182, %166
  ret void
}